target datalayout = "e-m:e-p270:32:32-p271:32:32-p272:64:64-i64:64-i128:128-f80:128-n8:16:32:64-S128"
target triple = "x86_64-pc-linux-gnu"

%struct.PortControl = type { ptr, i32, ptr, i32 }

; Function Attrs: nounwind uwtable
define internal i32 @isPlaybackFunction(i32 noundef %0) #0 {
  %2 = alloca i32, align 4
  store i32 %0, ptr %2, align 4
  %3 = load i32, ptr %2, align 4
  %4 = sext i32 %3 to i64
  %5 = and i64 %4, 65280
  %6 = trunc i64 %5 to i32
  ret i32 %6
}

; Function Attrs: nounwind uwtable
define hidden void @PORT_SetIntValue(ptr noundef %0, i32 noundef %1) #0 {
  %3 = alloca ptr, align 8
  %4 = alloca i32, align 4
  %5 = alloca ptr, align 8
  store ptr %0, ptr %3, align 8
  store i32 %1, ptr %4, align 4
  %6 = load ptr, ptr %3, align 8
  store ptr %6, ptr %5, align 8
  %7 = load ptr, ptr %5, align 8
  %8 = icmp ne ptr %7, null
  br i1 %8, label %9, label %50

9:                                                ; preds = %2
  %10 = load ptr, ptr %5, align 8
  %11 = getelementptr inbounds %struct.PortControl, ptr %10, i32 0, i32 2
  %12 = load ptr, ptr %11, align 8
  %13 = icmp eq ptr %12, inttoptr (i64 1 to ptr)
  br i1 %13, label %14, label %19

14:                                               ; preds = %9
  %15 = load i32, ptr %4, align 4
  %16 = icmp ne i32 %15, 0
  %17 = xor i1 %16, true
  %18 = zext i1 %17 to i32
  store i32 %18, ptr %4, align 4
  br label %19

19:                                               ; preds = %14, %9
  %20 = load ptr, ptr %5, align 8
  %21 = getelementptr inbounds %struct.PortControl, ptr %20, i32 0, i32 2
  %22 = load ptr, ptr %21, align 8
  %23 = icmp eq ptr %22, inttoptr (i64 1 to ptr)
  br i1 %23, label %29, label %24

24:                                               ; preds = %19
  %25 = load ptr, ptr %5, align 8
  %26 = getelementptr inbounds %struct.PortControl, ptr %25, i32 0, i32 2
  %27 = load ptr, ptr %26, align 8
  %28 = icmp eq ptr %27, inttoptr (i64 2 to ptr)
  br i1 %28, label %29, label %48

29:                                               ; preds = %24, %19
  %30 = load ptr, ptr %5, align 8
  %31 = getelementptr inbounds %struct.PortControl, ptr %30, i32 0, i32 1
  %32 = load i32, ptr %31, align 8
  %33 = call i32 @isPlaybackFunction(i32 noundef %32)
  %34 = icmp ne i32 %33, 0
  br i1 %34, label %35, label %41

35:                                               ; preds = %29
  %36 = load ptr, ptr %5, align 8
  %37 = getelementptr inbounds %struct.PortControl, ptr %36, i32 0, i32 0
  %38 = load ptr, ptr %37, align 8
  %39 = load i32, ptr %4, align 4
  %40 = call i32 @snd_mixer_selem_set_playback_switch_all(ptr noundef %38, i32 noundef %39)
  br label %47

41:                                               ; preds = %29
  %42 = load ptr, ptr %5, align 8
  %43 = getelementptr inbounds %struct.PortControl, ptr %42, i32 0, i32 0
  %44 = load ptr, ptr %43, align 8
  %45 = load i32, ptr %4, align 4
  %46 = call i32 @snd_mixer_selem_set_capture_switch_all(ptr noundef %44, i32 noundef %45)
  br label %47

47:                                               ; preds = %41, %35
  br label %49

48:                                               ; preds = %24
  br label %49

49:                                               ; preds = %48, %47
  br label %50

50:                                               ; preds = %49, %2
  ret void
}