; Function Attrs: nounwind uwtable
define hidden void @PORT_SetIntValue(ptr noundef readonly %0, i32 noundef %1) local_unnamed_addr #0 {
  %.not = icmp eq ptr %0, null
  br i1 %.not, label %17, label %3

3:                                                ; preds = %2
  %4 = getelementptr inbounds i8, ptr %0, i64 16
  %5 = load ptr, ptr %4, align 8
  %6 = icmp eq ptr %5, inttoptr (i64 1 to ptr)
  %.not12 = icmp eq i32 %1, 0
  %7 = zext i1 %.not12 to i32
  %.0 = select i1 %6, i32 %7, i32 %1
  %magicptr = ptrtoint ptr %5 to i64
  %magicptr.off = add i64 %magicptr, -1
  %switch = icmp ult i64 %magicptr.off, 2
  br i1 %switch, label %8, label %17

8:                                                ; preds = %3
  %9 = getelementptr inbounds i8, ptr %0, i64 8
  %10 = load i32, ptr %9, align 8
  %11 = and i32 %10, 65280
  %.not13 = icmp eq i32 %11, 0
  %12 = load ptr, ptr %0, align 8
  br i1 %.not13, label %15, label %13

13:                                               ; preds = %8
  %14 = tail call i32 @snd_mixer_selem_set_playback_switch_all(ptr noundef %12, i32 noundef %.0) #11
  br label %17

15:                                               ; preds = %8
  %16 = tail call i32 @snd_mixer_selem_set_capture_switch_all(ptr noundef %12, i32 noundef %.0) #11
  br label %17

17:                                               ; preds = %3, %15, %13, %2
  ret void
}